target datalayout = "e-m:e-p270:32:32-p271:32:32-p272:64:64-i64:64-i128:128-f80:128-n8:16:32:64-S128"
target triple = "x86_64-pc-linux-gnu"

@_ZN2os19java_to_os_priorityE = external global [12 x i32], align 16

; Function Attrs: mustprogress nounwind uwtable
define hidden noundef i32 @_ZN2os12set_priorityEP6Thread14ThreadPriority(ptr noundef %0, i32 noundef %1) #1 align 2 {
  %3 = alloca i32, align 4
  %4 = alloca ptr, align 8
  %5 = alloca i32, align 4
  %6 = alloca i32, align 4
  store ptr %0, ptr %4, align 8
  store i32 %1, ptr %5, align 4
  %7 = load i32, ptr %5, align 4
  %8 = icmp sge i32 %7, 1
  br i1 %8, label %9, label %12

9:                                                ; preds = %2
  %10 = load i32, ptr %5, align 4
  %11 = icmp sle i32 %10, 10
  br i1 %11, label %21, label %12

12:                                               ; preds = %9, %2
  %13 = load i32, ptr %5, align 4
  %14 = icmp eq i32 %13, 11
  br i1 %14, label %15, label %29

15:                                               ; preds = %12
  %16 = load ptr, ptr %4, align 8
  %17 = load ptr, ptr %16, align 8
  %18 = getelementptr inbounds ptr, ptr %17, i64 13
  %19 = load ptr, ptr %18, align 8
  %20 = call noundef zeroext i1 %19(ptr noundef nonnull align 8 dereferenceable(888) %16)
  br i1 %20, label %21, label %29

21:                                               ; preds = %15, %9
  %22 = load i32, ptr %5, align 4
  %23 = sext i32 %22 to i64
  %24 = getelementptr inbounds [12 x i32], ptr @_ZN2os19java_to_os_priorityE, i64 0, i64 %23
  %25 = load i32, ptr %24, align 4
  store i32 %25, ptr %6, align 4
  %26 = load ptr, ptr %4, align 8
  %27 = load i32, ptr %6, align 4
  %28 = call noundef i32 @_ZN2os19set_native_priorityEP6Threadi(ptr noundef %26, i32 noundef %27)
  store i32 %28, ptr %3, align 4
  br label %30

29:                                               ; preds = %15, %12
  store i32 -1, ptr %3, align 4
  br label %30

30:                                               ; preds = %29, %21
  %31 = load i32, ptr %3, align 4
  ret i32 %31
}