; Function Attrs: mustprogress nounwind uwtable
define hidden noundef i32 @_ZN2os12set_priorityEP6Thread14ThreadPriority(ptr noundef %0, i32 noundef %1) local_unnamed_addr #3 align 2 {
  %3 = add i32 %1, -1
  %or.cond = icmp ult i32 %3, 10
  br i1 %or.cond, label %11, label %4

4:                                                ; preds = %2
  %5 = icmp eq i32 %1, 11
  br i1 %5, label %6, label %16

6:                                                ; preds = %4
  %7 = load ptr, ptr %0, align 8
  %8 = getelementptr inbounds i8, ptr %7, i64 104
  %9 = load ptr, ptr %8, align 8
  %10 = tail call noundef zeroext i1 %9(ptr noundef nonnull align 8 dereferenceable(888) %0) #28
  br i1 %10, label %11, label %16

11:                                               ; preds = %2, %6
  %12 = zext nneg i32 %1 to i64
  %13 = getelementptr inbounds [12 x i32], ptr @_ZN2os19java_to_os_priorityE, i64 0, i64 %12
  %14 = load i32, ptr %13, align 4
  %15 = tail call noundef i32 @_ZN2os19set_native_priorityEP6Threadi(ptr noundef %0, i32 noundef %14) #28
  br label %16

16:                                               ; preds = %4, %6, %11
  %.0 = phi i32 [ %15, %11 ], [ -1, %6 ], [ -1, %4 ]
  ret i32 %.0
}